-----BEGIN ENCRYPTED PRIVATE KEY-----
MIIFJTBfBgkqhkiG9w0BBQ0wUjAxBgkqhkiG9w0BBQwwJAQQOM9vsrYtmHROrMKH
NSbC3QICCAAwDAYIKoZIhvcNAgkFADAdBglghkgBZQMEASoEEIV/BYsEO6WKX1eN
JYRJDbAEggTAODnJamkLQyhPVdg7QulNYd59dqB+Ea7hdnmaam2RspxRYsTeVAri
saieq5/PHqHSoRIXziqGbqypDq3oFDywv29B2Ld+CbHyU7vKcDMQlJqdvU7dVzdB
TI4bmFcrTlK+KLUuZWWWiz8Ig/jzOQWFpBalhQmpgtKHGmVqLudW+FPg2HrYlLpZ
8Y1xpmZUq+tBLYxEWyAQey53C8f+4D1Rb6wTur9ZFvvshRU1D6dbD0la9oZdxNG2
TYwjxBnrlTadSgUIdicVyKs5VMg5bwK4iXj6O4/37sNWY4KBdW+ZeGKgNsZgaFob
7Jkp0OVsVc/XZNkrXj0rAjEiSsGIWj5wSWC/OGtWpDy/DXS8oXNzIbTDbDKsLJE0
yO9iglX19Y5qnpeuARbab+R+NDN5iWmH9M4TGr8PXkMmtI0Ak61GZ7vvzTRrpsL2
SLN6QBqiundbaRH3Th4BrRfKzGUtNxHC5H3LhQuq+r1u7xIEnCAAwiP7mC+xMZFd
0gwkuO1Ne9O9e9UCVT65FGfTQ36t2jeKgqJzTcnw83xb5n+IL/D94+8ekxjnQqGr
dHoad+gwR9PgCq9VybSAF8NeDQ/sh6xz1wqDLk6zaHV3VVz4yEpmtEB1klmC0Xyt
wh/NHfMxRqk/1lwPG2EjQsvDRwxj2QxLNG4CI/iEiosYKw0+RimNOGQ7QtnJGkIY
AhthD1YvR7jdrfHO3WXXUGRCYEDVGNLZH1836Pd89Ecqf5QVgcbSLlHl4cCugTqC
fJU2fdLQL6GLzTmwTEs5cGVzXG/qr1HaVIW96WegM/Qa0et7rosGsrXa4Y/iPnmP
KexRd8gEV0IP7TgbG/EtaejrtUhEMgt9TdWlI4ULP3wETK9HZnzs6ZNC6i3Ea/HO
J60hVea//mrWzz6bJWmMtKaEUy+YnReKxpQb9XKDVLmB9AgavcGofCU3iS0c8nu8
/st7WF4Thvtx2FETWmKrYp4o5eT/vNLGzKmB/karmRsytaQpFq2tLgoHe8TY8iuy
SQ+KchPIykuqNeHJF5gsi7GOyhCnZ08/Nj97Yp98Wzlw7xQxws6X1sZttjCB1LAf
X7mV84WmmKzMvHjkCxhxyelINbYJVCYvs2riryypTyk1AhXXJpGc6X+bgBiBAIP2
hJpyzzYgY+/WAfCpKtm7pGQCXiDgKBGztoP0SiP1qyvsxbO1VaHSv2qtFQf60toH
SOQuiyU68YUq7wv54QxpDotS/SdrEtSpUTcLJvp5aGpxK1FUjHNwDAUSdNDdIHiS
1vrSSZDI0bMokrWyLOeHUlInSOBVFh9Dp46V/iXvsS1Fjj4jEHHM84ML8o7CgRI5
RHwz3MIdms7Tgc4uYi+6VauWdm9F5vBl2/fHxc0rfhx3+zN+hw3H8NpIeR37tRot
4wf3yrpsTJI9Tu/DP2I0gRg2rmj492vdBOruujBmxL4WE7KboHfT5TobPOhWVuw6
58ZD8OwcWMjppXGq5FjgwGX2mKhfaywNaXt/7ph621gtYKewxb6oglOP2T3IpM25
uwfxAcR3HFYLchIdyej6fWftQe50+5qMU/q4zWOW0JiLNOYK+0+e/1ydtbMJRn0B
hJ0IZGLeXA2Q1kFETE9CfdRw8k6IM20Cgg==
-----END ENCRYPTED PRIVATE KEY-----
Certificate:
    Data:
        Version: 3 (0x2)
        Serial Number:
            7d:d7:78:31:24:2d:ec:fc:90:70:0a:f5:2b:88:f5:03:e7:c9:e8:86
        Signature Algorithm: sha256WithRSAEncryption
        Issuer: DC=org, DC=simple, O=Simple Inc, CN=Simple Signing CA
        Validity
            Not Before: May 17 22:46:03 2025 GMT
            Not After : May 17 22:46:03 2027 GMT
        Subject: DC=org, DC=simple, O=Simple Inc, CN=Fred flinstone/emailAddress=fred@simple.org
        Subject Public Key Info:
            Public Key Algorithm: rsaEncryption
                Public-Key: (2048 bit)
                Modulus:
                    00:d1:e8:71:d0:27:76:21:e4:8b:24:c7:a8:51:0a:
                    3a:9e:58:d1:08:27:1f:d6:7f:5a:7b:a8:47:e3:87:
                    36:df:3b:67:4f:fa:4b:d3:ce:8f:14:8a:0b:6f:a0:
                    4f:27:45:fc:24:4a:77:ee:fd:a7:e2:f7:13:4d:b0:
                    b2:ab:df:ea:12:63:b6:98:4e:4b:86:c5:11:1f:73:
                    cf:8e:4f:5c:e4:0d:a8:b1:62:c8:02:89:cb:67:06:
                    07:ee:82:49:42:bf:59:e1:82:43:e2:26:99:5e:d8:
                    62:1d:86:1d:9c:9c:5c:36:3c:1b:f6:4a:b2:dd:6f:
                    2c:95:cb:33:15:7a:91:4a:64:db:d1:9e:46:0d:17:
                    80:b9:55:15:97:0e:17:cd:c8:0b:c7:18:86:85:ba:
                    44:6b:79:0f:18:39:68:f0:51:18:a8:4a:bb:93:1a:
                    ea:50:13:7f:78:fd:20:09:ac:ab:89:fd:91:99:ce:
                    d3:6a:dd:99:98:95:f4:4d:1a:80:fb:d1:17:91:71:
                    f6:e5:f8:f8:95:88:c3:0a:08:4b:b4:24:f3:0b:de:
                    89:28:cf:2d:44:eb:e7:2b:86:92:82:41:9f:b0:3c:
                    54:f2:13:a0:b9:63:45:26:50:9d:ae:e1:af:2c:9c:
                    79:cb:9e:ec:b1:1c:dd:34:77:7a:aa:2a:91:9c:fb:
                    0e:dd
                Exponent: 65537 (0x10001)
        X509v3 extensions:
            X509v3 Key Usage: critical
                Digital Signature, Key Encipherment
            X509v3 Basic Constraints: 
                CA:FALSE
            X509v3 Extended Key Usage: 
                E-mail Protection, TLS Web Client Authentication
            X509v3 Subject Key Identifier: 
                CF:4A:0B:64:E1:F1:95:E0:DA:D2:5F:B7:6A:05:C9:F6:E4:7C:D0:48
            X509v3 Authority Key Identifier: 
                E8:72:2E:51:A7:61:E1:FC:23:C5:71:5D:A3:AB:3D:81:86:B2:12:96
            X509v3 Subject Alternative Name: 
                email:fred@simple.org
    Signature Algorithm: sha256WithRSAEncryption
    Signature Value:
        75:c7:6f:3b:c4:d0:20:e6:89:3f:80:00:5b:69:63:1f:0e:5c:
        8d:77:67:a3:a1:78:da:d3:ae:b0:43:d5:33:34:e2:5f:c0:86:
        a4:d5:44:56:a7:20:f2:ac:7b:23:2b:01:bf:83:0a:bb:2a:51:
        b0:5c:11:d7:25:d1:3a:84:68:98:87:29:8a:50:c5:34:13:a3:
        48:35:ff:a5:ce:f4:65:db:cd:1f:5b:c0:a4:43:3e:0c:db:41:
        a1:4a:6d:51:f0:be:38:54:8b:0e:d8:34:98:6a:41:ca:90:97:
        fa:af:cd:78:83:bc:ce:50:2a:de:c5:39:02:81:ce:fa:74:a5:
        c5:cf:62:a6:46:6f:02:13:c7:42:4e:75:89:22:1f:f3:8d:a3:
        69:6b:5c:c9:79:60:03:96:bb:1e:f6:87:ee:b5:14:ad:b8:bd:
        20:6d:06:c7:59:0a:68:a9:ff:19:2f:ec:ba:fe:89:d2:de:ca:
        cb:67:e5:d5:40:78:de:75:4b:34:be:70:86:11:ce:ac:61:11:
        ac:5f:41:cc:9c:57:3c:22:6e:1f:7a:5a:a3:e2:ca:ad:7e:ff:
        84:18:8a:4e:b3:5a:fc:34:90:25:a4:5b:de:6f:87:7e:4f:55:
        69:41:73:01:58:87:6e:52:b3:a7:1a:04:dd:c8:c5:27:a3:bf:
        06:aa:f8:e3
-----BEGIN CERTIFICATE-----
MIIEATCCAumgAwIBAgIUfdd4MSQt7PyQcAr1K4j1A+fJ6IYwDQYJKoZIhvcNAQEL
BQAwXjETMBEGCgmSJomT8ixkARkWA29yZzEWMBQGCgmSJomT8ixkARkWBnNpbXBs
ZTETMBEGA1UECgwKU2ltcGxlIEluYzEaMBgGA1UEAwwRU2ltcGxlIFNpZ25pbmcg
Q0EwHhcNMjUwNTE3MjI0NjAzWhcNMjcwNTE3MjI0NjAzWjB7MRMwEQYKCZImiZPy
LGQBGRYDb3JnMRYwFAYKCZImiZPyLGQBGRYGc2ltcGxlMRMwEQYDVQQKDApTaW1w
bGUgSW5jMRcwFQYDVQQDDA5GcmVkIGZsaW5zdG9uZTEeMBwGCSqGSIb3DQEJARYP
ZnJlZEBzaW1wbGUub3JnMIIBIjANBgkqhkiG9w0BAQEFAAOCAQ8AMIIBCgKCAQEA
0ehx0Cd2IeSLJMeoUQo6nljRCCcf1n9ae6hH44c23ztnT/pL086PFIoLb6BPJ0X8
JEp37v2n4vcTTbCyq9/qEmO2mE5LhsURH3PPjk9c5A2osWLIAonLZwYH7oJJQr9Z
4YJD4iaZXthiHYYdnJxcNjwb9kqy3W8slcszFXqRSmTb0Z5GDReAuVUVlw4XzcgL
xxiGhbpEa3kPGDlo8FEYqEq7kxrqUBN/eP0gCayrif2Rmc7Tat2ZmJX0TRqA+9EX
kXH25fj4lYjDCghLtCTzC96JKM8tROvnK4aSgkGfsDxU8hOguWNFJlCdruGvLJx5
y57ssRzdNHd6qiqRnPsO3QIDAQABo4GZMIGWMA4GA1UdDwEB/wQEAwIFoDAJBgNV
HRMEAjAAMB0GA1UdJQQWMBQGCCsGAQUFBwMEBggrBgEFBQcDAjAdBgNVHQ4EFgQU
z0oLZOHxleDa0l+3agXJ9uR80EgwHwYDVR0jBBgwFoAU6HIuUadh4fwjxXFdo6s9
gYayEpYwGgYDVR0RBBMwEYEPZnJlZEBzaW1wbGUub3JnMA0GCSqGSIb3DQEBCwUA
A4IBAQB1x287xNAg5ok/gABbaWMfDlyNd2ejoXja066wQ9UzNOJfwIak1URWpyDy
rHsjKwG/gwq7KlGwXBHXJdE6hGiYhymKUMU0E6NINf+lzvRl280fW8CkQz4M20Gh
Sm1R8L44VIsO2DSYakHKkJf6r814g7zOUCrexTkCgc76dKXFz2KmRm8CE8dCTnWJ
Ih/zjaNpa1zJeWADlrse9ofutRStuL0gbQbHWQpoqf8ZL+y6/onS3srLZ+XVQHje
dUs0vnCGEc6sYRGsX0HMnFc8Im4felqj4sqtfv+EGIpOs1r8NJAlpFveb4d+T1Vp
QXMBWIduUrOnGgTdyMUno78Gqvjj
-----END CERTIFICATE-----
