Certificate:
    Data:
        Version: 3 (0x2)
        Serial Number:
            68:dd:9b:d7:07:0e:36:29:3a:54:12:89:cd:89:3f:ff:4b:ee:e2:e6
        Signature Algorithm: sha256WithRSAEncryption
        Issuer: DC=org, DC=simple, O=Simple Inc, CN=Simple Signing CA
        Validity
            Not Before: May 17 22:50:01 2025 GMT
            Not After : May 17 22:50:01 2027 GMT
        Subject: DC=org, DC=simple, O=Simple Inc, CN=www.simple.org
        Subject Public Key Info:
            Public Key Algorithm: rsaEncryption
                Public-Key: (2048 bit)
                Modulus:
                    00:dd:10:c3:9c:28:d9:6c:ff:c6:53:8d:c8:92:82:
                    e8:ce:35:17:60:28:53:85:6e:fe:32:b5:59:53:e7:
                    94:63:2d:d9:0d:9d:ad:38:53:e6:bb:b7:56:c6:f4:
                    bc:5c:23:a1:0c:4a:a9:8b:43:0d:cf:bc:45:9e:6c:
                    d7:fb:8c:13:a9:b4:0f:b1:64:43:dd:e0:59:fe:57:
                    8c:e5:fa:49:31:07:77:c3:9b:16:b6:3e:2c:37:39:
                    6f:0f:b7:6a:73:9c:1c:cf:e8:59:01:83:14:a7:27:
                    b3:84:ee:67:2a:c1:1b:c5:e1:05:0f:d9:b1:95:5c:
                    07:80:b7:f7:da:b8:41:13:76:d9:68:6e:88:96:6e:
                    8f:b4:88:21:28:08:0c:0c:63:69:08:b9:5c:14:ae:
                    08:6c:0b:bd:06:a1:60:e9:8f:13:50:6a:e6:20:31:
                    db:c5:61:e1:b9:eb:72:2d:2c:d7:11:e7:ba:7b:64:
                    74:33:5b:29:24:62:8a:97:04:cc:48:a2:40:31:4d:
                    26:e1:e0:21:d2:85:29:55:03:58:31:a0:41:80:49:
                    ca:6e:37:91:9d:91:07:84:6b:82:3f:7b:ed:7b:82:
                    c6:57:82:94:d0:0c:f4:b1:76:eb:c2:b9:62:f1:27:
                    67:3c:ca:55:d2:a4:19:7c:ed:7d:bd:24:48:0d:f7:
                    be:bf
                Exponent: 65537 (0x10001)
        X509v3 extensions:
            X509v3 Key Usage: critical
                Digital Signature, Key Encipherment
            X509v3 Basic Constraints: 
                CA:FALSE
            X509v3 Extended Key Usage: 
                TLS Web Server Authentication, TLS Web Client Authentication
            X509v3 Subject Key Identifier: 
                AB:50:DF:7F:88:68:0F:75:E5:97:E1:01:7B:90:6A:74:0C:C5:88:3F
            X509v3 Authority Key Identifier: 
                E8:72:2E:51:A7:61:E1:FC:23:C5:71:5D:A3:AB:3D:81:86:B2:12:96
            X509v3 Subject Alternative Name: 
                DNS:www.simple.org
    Signature Algorithm: sha256WithRSAEncryption
    Signature Value:
        42:53:29:94:e9:3a:9f:7f:98:d5:47:ca:78:63:aa:61:63:5d:
        48:d2:13:4e:d2:7e:0a:b9:da:5b:62:62:db:75:55:fa:5c:a1:
        20:ef:23:cd:2e:78:62:43:82:ed:4a:db:9c:e1:9e:f4:8f:56:
        68:e3:37:13:8f:fb:81:e9:a7:d1:0e:72:e7:d0:b1:77:7a:86:
        d1:19:f6:21:97:22:52:78:5a:19:bf:df:51:94:fd:31:53:f9:
        7f:da:20:bd:d1:bb:c0:2f:c3:7a:4b:51:97:e1:c5:c3:ee:61:
        a2:0a:c3:98:78:73:03:2f:49:ad:01:0c:09:64:ee:ed:77:08:
        fa:d3:2f:c7:e9:eb:40:47:c9:00:15:59:b8:5e:76:85:bd:34:
        25:1e:6a:9f:3a:a1:03:5d:1a:4c:36:60:08:be:7d:8f:2e:5c:
        1d:8d:75:a5:a8:ca:da:3b:a8:2a:0b:0b:71:e9:8b:f4:b9:97:
        e8:f7:c0:5c:2b:14:a2:a7:5f:59:40:2d:c9:9c:b1:84:2a:c2:
        38:08:73:6c:e4:a4:7b:aa:7c:d3:20:b2:e9:2d:1a:e2:5e:e8:
        78:a2:c6:a0:77:68:30:42:fd:d7:d7:73:47:70:9e:cd:6b:79:
        b9:bf:4b:08:50:f7:d4:ba:ba:9d:96:51:c4:51:d3:2d:bf:4c:
        26:21:d1:7d
-----BEGIN CERTIFICATE-----
MIID4DCCAsigAwIBAgIUaN2b1wcONik6VBKJzYk//0vu4uYwDQYJKoZIhvcNAQEL
BQAwXjETMBEGCgmSJomT8ixkARkWA29yZzEWMBQGCgmSJomT8ixkARkWBnNpbXBs
ZTETMBEGA1UECgwKU2ltcGxlIEluYzEaMBgGA1UEAwwRU2ltcGxlIFNpZ25pbmcg
Q0EwHhcNMjUwNTE3MjI1MDAxWhcNMjcwNTE3MjI1MDAxWjBbMRMwEQYKCZImiZPy
LGQBGRYDb3JnMRYwFAYKCZImiZPyLGQBGRYGc2ltcGxlMRMwEQYDVQQKDApTaW1w
bGUgSW5jMRcwFQYDVQQDDA53d3cuc2ltcGxlLm9yZzCCASIwDQYJKoZIhvcNAQEB
BQADggEPADCCAQoCggEBAN0Qw5wo2Wz/xlONyJKC6M41F2AoU4Vu/jK1WVPnlGMt
2Q2drThT5ru3Vsb0vFwjoQxKqYtDDc+8RZ5s1/uME6m0D7FkQ93gWf5XjOX6STEH
d8ObFrY+LDc5bw+3anOcHM/oWQGDFKcns4TuZyrBG8XhBQ/ZsZVcB4C399q4QRN2
2WhuiJZuj7SIISgIDAxjaQi5XBSuCGwLvQahYOmPE1Bq5iAx28Vh4bnrci0s1xHn
untkdDNbKSRiipcEzEiiQDFNJuHgIdKFKVUDWDGgQYBJym43kZ2RB4Rrgj977XuC
xleClNAM9LF268K5YvEnZzzKVdKkGXztfb0kSA33vr8CAwEAAaOBmDCBlTAOBgNV
HQ8BAf8EBAMCBaAwCQYDVR0TBAIwADAdBgNVHSUEFjAUBggrBgEFBQcDAQYIKwYB
BQUHAwIwHQYDVR0OBBYEFKtQ33+IaA915ZfhAXuQanQMxYg/MB8GA1UdIwQYMBaA
FOhyLlGnYeH8I8VxXaOrPYGGshKWMBkGA1UdEQQSMBCCDnd3dy5zaW1wbGUub3Jn
MA0GCSqGSIb3DQEBCwUAA4IBAQBCUymU6Tqff5jVR8p4Y6phY11I0hNO0n4Kudpb
YmLbdVX6XKEg7yPNLnhiQ4LtStuc4Z70j1Zo4zcTj/uB6afRDnLn0LF3eobRGfYh
lyJSeFoZv99RlP0xU/l/2iC90bvAL8N6S1GX4cXD7mGiCsOYeHMDL0mtAQwJZO7t
dwj60y/H6etAR8kAFVm4XnaFvTQlHmqfOqEDXRpMNmAIvn2PLlwdjXWlqMraO6gq
Cwtx6Yv0uZfo98BcKxSip19ZQC3JnLGEKsI4CHNs5KR7qnzTILLpLRriXuh4osag
d2gwQv3X13NHcJ7Na3m5v0sIUPfUurqdllHEUdMtv0wmIdF9
-----END CERTIFICATE-----
